target datalayout = "e-m:e-p270:32:32-p271:32:32-p272:64:64-i64:64-i128:128-f80:128-n8:16:32:64-S128"
target triple = "x86_64-pc-linux-gnu"

%"struct.mbp::is_pure_ns::proc" = type { ptr }
%class.ast_fast_mark = type { %class.ptr_buffer.125 }
%class.ptr_buffer.125 = type { %class.buffer.126 }
%class.buffer.126 = type { ptr, i32, i32, [128 x i8] }

@_ZTIN3mbp10is_pure_ns5foundE = linkonce_odr hidden constant { ptr, ptr } { ptr getelementptr inbounds (ptr, ptr @_ZTVN10__cxxabiv117__class_type_infoE, i64 2), ptr @_ZTSN3mbp10is_pure_ns5foundE }, comdat, align 8

; Function Attrs: mustprogress nounwind uwtable
define linkonce_odr hidden void @_ZN6bufferIP3astLb0ELj16EEC2Ev(ptr noundef nonnull align 8 dereferenceable(144) %0) unnamed_addr #6 comdat align 2 {
  %2 = alloca ptr, align 8
  store ptr %0, ptr %2, align 8, !tbaa !604
  %3 = load ptr, ptr %2, align 8
  %4 = getelementptr inbounds nuw %class.buffer.126, ptr %3, i32 0, i32 0
  %5 = getelementptr inbounds nuw %class.buffer.126, ptr %3, i32 0, i32 3
  %6 = getelementptr inbounds [128 x i8], ptr %5, i64 0, i64 0
  store ptr %6, ptr %4, align 8, !tbaa !606
  %7 = getelementptr inbounds nuw %class.buffer.126, ptr %3, i32 0, i32 1
  store i32 0, ptr %7, align 8, !tbaa !608
  %8 = getelementptr inbounds nuw %class.buffer.126, ptr %3, i32 0, i32 2
  store i32 16, ptr %8, align 4, !tbaa !609
  ret void
}

; Function Attrs: inlinehint mustprogress nounwind uwtable
define linkonce_odr hidden void @_ZN10ptr_bufferI3astLj16EEC2Ev(ptr noundef nonnull align 8 dereferenceable(144) %0) unnamed_addr #8 comdat align 2 {
  %2 = alloca ptr, align 8
  store ptr %0, ptr %2, align 8, !tbaa !602
  %3 = load ptr, ptr %2, align 8
  call void @_ZN6bufferIP3astLb0ELj16EEC2Ev(ptr noundef nonnull align 8 dereferenceable(144) %3) #3
  ret void
}

; Function Attrs: inlinehint mustprogress nounwind uwtable
define linkonce_odr hidden void @_ZN13ast_fast_markILj1EEC2Ev(ptr noundef nonnull align 8 dereferenceable(144) %0) unnamed_addr #8 comdat align 2 {
  %2 = alloca ptr, align 8
  store ptr %0, ptr %2, align 8, !tbaa !600
  %3 = load ptr, ptr %2, align 8
  %4 = getelementptr inbounds nuw %class.ast_fast_mark, ptr %3, i32 0, i32 0
  call void @_ZN10ptr_bufferI3astLj16EEC2Ev(ptr noundef nonnull align 8 dereferenceable(144) %4) #3
  ret void
}

; Function Attrs: mustprogress uwtable
define linkonce_odr hidden void @_Z19quick_for_each_exprIN3mbp10is_pure_ns4procEEvRT_P4expr(ptr noundef nonnull align 8 dereferenceable(8) %0, ptr noundef %1) #4 comdat personality ptr @__gxx_personality_v0 {
  %3 = alloca ptr, align 8
  %4 = alloca ptr, align 8
  %5 = alloca %class.ast_fast_mark, align 8
  %6 = alloca ptr, align 8
  %7 = alloca i32, align 4
  store ptr %0, ptr %3, align 8, !tbaa !10
  store ptr %1, ptr %4, align 8, !tbaa !8
  call void @llvm.lifetime.start.p0(i64 144, ptr %5) #3
  call void @_ZN13ast_fast_markILj1EEC2Ev(ptr noundef nonnull align 8 dereferenceable(144) %5) #3
  %8 = load ptr, ptr %3, align 8, !tbaa !10
  %9 = load ptr, ptr %4, align 8, !tbaa !8
  invoke void @_Z18for_each_expr_coreIN3mbp10is_pure_ns4procE13ast_fast_markILj1EELb0ELb0EEvRT_RT0_P4expr(ptr noundef nonnull align 8 dereferenceable(8) %8, ptr noundef nonnull align 8 dereferenceable(144) %5, ptr noundef %9)
          to label %10 unwind label %11

10:                                               ; preds = %2
  call void @_ZN13ast_fast_markILj1EED2Ev(ptr noundef nonnull align 8 dereferenceable(144) %5) #3
  call void @llvm.lifetime.end.p0(i64 144, ptr %5) #3
  ret void

11:                                               ; preds = %2
  %12 = landingpad { ptr, i32 }
          cleanup
  %13 = extractvalue { ptr, i32 } %12, 0
  store ptr %13, ptr %6, align 8
  %14 = extractvalue { ptr, i32 } %12, 1
  store i32 %14, ptr %7, align 4
  call void @_ZN13ast_fast_markILj1EED2Ev(ptr noundef nonnull align 8 dereferenceable(144) %5) #3
  call void @llvm.lifetime.end.p0(i64 144, ptr %5) #3
  br label %15

15:                                               ; preds = %11
  %16 = load ptr, ptr %6, align 8
  %17 = load i32, ptr %7, align 4
  %18 = insertvalue { ptr, i32 } poison, ptr %16, 0
  %19 = insertvalue { ptr, i32 } %18, i32 %17, 1
  resume { ptr, i32 } %19
}

; Function Attrs: mustprogress nounwind uwtable
define linkonce_odr hidden void @_ZN3mbp10is_pure_ns4procC2ER16is_variable_proc(ptr noundef nonnull align 8 dereferenceable(8) %0, ptr noundef nonnull align 8 dereferenceable(8) %1) unnamed_addr #6 comdat align 2 {
  %3 = alloca ptr, align 8
  %4 = alloca ptr, align 8
  store ptr %0, ptr %3, align 8, !tbaa !10
  store ptr %1, ptr %4, align 8, !tbaa !3
  %5 = load ptr, ptr %3, align 8
  %6 = getelementptr inbounds nuw %"struct.mbp::is_pure_ns::proc", ptr %5, i32 0, i32 0
  %7 = load ptr, ptr %4, align 8, !tbaa !3
  store ptr %7, ptr %6, align 8, !tbaa !3
  ret void
}

; Function Attrs: mustprogress uwtable
define hidden noundef zeroext i1 @_ZN3mbp7is_pureER16is_variable_procP4expr(ptr noundef nonnull align 8 dereferenceable(8) %0, ptr noundef %1) #4 personality ptr @__gxx_personality_v0 {
  %3 = alloca i1, align 1
  %4 = alloca ptr, align 8
  %5 = alloca ptr, align 8
  %6 = alloca %"struct.mbp::is_pure_ns::proc", align 8
  %7 = alloca ptr, align 8
  %8 = alloca i32, align 4
  %9 = alloca ptr, align 8
  store ptr %0, ptr %4, align 8, !tbaa !3
  store ptr %1, ptr %5, align 8, !tbaa !8
  call void @llvm.lifetime.start.p0(i64 8, ptr %6) #3
  %10 = load ptr, ptr %4, align 8, !tbaa !3
  invoke void @_ZN3mbp10is_pure_ns4procC2ER16is_variable_proc(ptr noundef nonnull align 8 dereferenceable(8) %6, ptr noundef nonnull align 8 dereferenceable(8) %10)
          to label %11 unwind label %14

11:                                               ; preds = %2
  %12 = load ptr, ptr %5, align 8, !tbaa !8
  invoke void @_Z19quick_for_each_exprIN3mbp10is_pure_ns4procEEvRT_P4expr(ptr noundef nonnull align 8 dereferenceable(8) %6, ptr noundef %12)
          to label %13 unwind label %14

13:                                               ; preds = %11
  call void @llvm.lifetime.end.p0(i64 8, ptr %6) #3
  br label %25

14:                                               ; preds = %11, %2
  %15 = landingpad { ptr, i32 }
          cleanup
          catch ptr @_ZTIN3mbp10is_pure_ns5foundE
  %16 = extractvalue { ptr, i32 } %15, 0
  store ptr %16, ptr %7, align 8
  %17 = extractvalue { ptr, i32 } %15, 1
  store i32 %17, ptr %8, align 4
  call void @llvm.lifetime.end.p0(i64 8, ptr %6) #3
  br label %18

18:                                               ; preds = %14
  %19 = load i32, ptr %8, align 4
  %20 = call i32 @llvm.eh.typeid.for.p0(ptr @_ZTIN3mbp10is_pure_ns5foundE) #3
  %21 = icmp eq i32 %19, %20
  br i1 %21, label %22, label %28

22:                                               ; preds = %18
  call void @llvm.lifetime.start.p0(i64 8, ptr %9) #3
  %23 = load ptr, ptr %7, align 8
  %24 = call ptr @__cxa_begin_catch(ptr %23) #3
  store ptr %24, ptr %9, align 8
  store i1 false, ptr %3, align 1
  call void @__cxa_end_catch()
  call void @llvm.lifetime.end.p0(i64 8, ptr %9) #3
  br label %26

25:                                               ; preds = %13
  store i1 true, ptr %3, align 1
  br label %26

26:                                               ; preds = %25, %22
  %27 = load i1, ptr %3, align 1
  ret i1 %27

28:                                               ; preds = %18
  %29 = load ptr, ptr %7, align 8
  %30 = load i32, ptr %8, align 4
  %31 = insertvalue { ptr, i32 } poison, ptr %29, 0
  %32 = insertvalue { ptr, i32 } %31, i32 %30, 1
  resume { ptr, i32 } %32
}