; Function Attrs: mustprogress uwtable
define hidden noundef zeroext i1 @_ZN3mbp7is_pureER16is_variable_procP4expr(ptr noundef nonnull align 8 dereferenceable(8) %0, ptr noundef %1) local_unnamed_addr #3 personality ptr @__gxx_personality_v0 {
  %3 = alloca %class.ast_fast_mark, align 8
  %4 = alloca %"struct.mbp::is_pure_ns::proc", align 8
  call void @llvm.lifetime.start.p0(i64 8, ptr nonnull %4) #27
  store ptr %0, ptr %4, align 8, !tbaa !3
  call void @llvm.lifetime.start.p0(i64 144, ptr nonnull %3) #27
  %5 = getelementptr inbounds nuw i8, ptr %3, i64 16
  store ptr %5, ptr %3, align 8, !tbaa !8
  %6 = getelementptr inbounds nuw i8, ptr %3, i64 8
  store i32 0, ptr %6, align 8, !tbaa !13
  %7 = getelementptr inbounds nuw i8, ptr %3, i64 12
  store i32 16, ptr %7, align 4, !tbaa !14
  invoke void @_Z18for_each_expr_coreIN3mbp10is_pure_ns4procE13ast_fast_markILj1EELb0ELb0EEvRT_RT0_P4expr(ptr noundef nonnull align 8 dereferenceable(8) %4, ptr noundef nonnull align 8 dereferenceable(144) %3, ptr noundef %1)
          to label %8 unwind label %.body

8:                                                ; preds = %2
  %9 = load ptr, ptr %3, align 8, !tbaa !8
  %10 = load i32, ptr %6, align 8, !tbaa !13
  %11 = zext i32 %10 to i64
  %12 = getelementptr inbounds nuw ptr, ptr %9, i64 %11
  %.not8.i.i.i = icmp eq i32 %10, 0
  br i1 %.not8.i.i.i, label %.loopexit.i.i, label %.lr.ph.i.i.i

.lr.ph.i.i.i:                                     ; preds = %8, %.lr.ph.i.i.i
  %.09.i.i.i = phi ptr [ %17, %.lr.ph.i.i.i ], [ %9, %8 ]
  %13 = load ptr, ptr %.09.i.i.i, align 8, !tbaa !15
  %14 = getelementptr inbounds nuw i8, ptr %13, i64 4
  %15 = load i32, ptr %14, align 4
  %16 = and i32 %15, -65537
  store i32 %16, ptr %14, align 4
  %17 = getelementptr inbounds nuw i8, ptr %.09.i.i.i, i64 8
  %.not.i.i.i = icmp eq ptr %17, %12
  br i1 %.not.i.i.i, label %.loopexit.loopexit.i.i, label %.lr.ph.i.i.i

.loopexit.loopexit.i.i:                           ; preds = %.lr.ph.i.i.i
  %.pre.i.i = load ptr, ptr %3, align 8, !tbaa !8
  br label %.loopexit.i.i

.loopexit.i.i:                                    ; preds = %.loopexit.loopexit.i.i, %8
  %18 = phi ptr [ %.pre.i.i, %.loopexit.loopexit.i.i ], [ %9, %8 ]
  store i32 0, ptr %6, align 8, !tbaa !13
  %.not.i.i.i.i.i = icmp eq ptr %18, %5
  %19 = icmp eq ptr %18, null
  %or.cond.i.i.i.i.i = or i1 %.not.i.i.i.i.i, %19
  br i1 %or.cond.i.i.i.i.i, label %28, label %20

20:                                               ; preds = %.loopexit.i.i
  invoke void @_ZN6memory10deallocateEPv(ptr noundef nonnull %18)
          to label %28 unwind label %21

21:                                               ; preds = %20
  %22 = landingpad { ptr, i32 }
          catch ptr null
  %23 = extractvalue { ptr, i32 } %22, 0
  call void @__clang_call_terminate(ptr %23) #28
  unreachable

.body:                                            ; preds = %2
  %24 = landingpad { ptr, i32 }
          cleanup
          catch ptr @_ZTIN3mbp10is_pure_ns5foundE
  call void @_ZN13ast_fast_markILj1EED2Ev(ptr noundef nonnull align 8 dereferenceable(144) %3) #27
  call void @llvm.lifetime.end.p0(i64 144, ptr nonnull %3) #27
  %25 = extractvalue { ptr, i32 } %24, 1
  call void @llvm.lifetime.end.p0(i64 8, ptr nonnull %4) #27
  %26 = call i32 @llvm.eh.typeid.for.p0(ptr nonnull @_ZTIN3mbp10is_pure_ns5foundE) #27
  %27 = icmp eq i32 %25, %26
  br i1 %27, label %29, label %33

28:                                               ; preds = %20, %.loopexit.i.i
  call void @llvm.lifetime.end.p0(i64 144, ptr nonnull %3) #27
  call void @llvm.lifetime.end.p0(i64 8, ptr nonnull %4) #27
  br label %32

29:                                               ; preds = %.body
  %30 = extractvalue { ptr, i32 } %24, 0
  %31 = call ptr @__cxa_begin_catch(ptr %30) #27
  call void @__cxa_end_catch()
  br label %32

32:                                               ; preds = %28, %29
  %.0 = phi i1 [ true, %28 ], [ false, %29 ]
  ret i1 %.0

33:                                               ; preds = %.body
  resume { ptr, i32 } %24
}